target datalayout = "e-m:e-p270:32:32-p271:32:32-p272:64:64-i64:64-i128:128-f80:128-n8:16:32:64-S128"
target triple = "x86_64-pc-linux-gnu"

%struct.WOLFSSL = type <{ ptr, ptr, ptr, ptr, [48 x i8], [48 x i8], ptr, ptr, ptr, ptr, ptr, ptr, ptr, ptr, ptr, ptr, ptr, ptr, ptr, i32, [4 x i8], %struct.WOLFSSL_CIPHER, ptr, %struct.Ciphers, %struct.Ciphers, [8 x i8], %struct.Buffers, ptr, ptr, %struct.WOLFSSL_ALERT_HISTORY, %struct.WOLFSSL_ALERT, i32, i32, i32, i32, i32, i32, i32, i16, [2 x i8], i32, i8, %struct.RecordLayerHeader, %struct.MsgsReceived, %struct.ProtocolVersion, %struct.ProtocolVersion, %struct.CipherSpecs, [2 x i8], %struct.Keys, %struct.Options, ptr, i8, i8, i16, [10 x i16], i8, i8, i16, i16, [38 x i8], i32, i32, [4 x i8], ptr, i8, i8, [6 x i8], ptr, ptr, i16, i8, i8, i32, i8, [3 x i8], i32, %struct.OneTimeAuth, ptr }>
%struct.WOLFSSL_CIPHER = type { i8, i8, ptr }
%struct.Ciphers = type { ptr, ptr, ptr, ptr, i8, i8 }
%struct.Buffers = type { %struct.bufferStatic, %struct.bufferStatic, %struct.WOLFSSL_BUFFER_INFO, %struct.WOLFSSL_BUFFER_INFO, %struct.WOLFSSL_BUFFER_INFO, %struct.WOLFSSL_BUFFER_INFO, i32, i32, i8, i8, i8, i8, %struct.WOLFSSL_BUFFER_INFO, %struct.WOLFSSL_BUFFER_INFO, %struct.WOLFSSL_BUFFER_INFO, %struct.WOLFSSL_BUFFER_INFO, ptr, ptr, ptr, i8, i8, i32, i32, ptr, i32, [1 x ptr] }
%struct.bufferStatic = type { [5 x i8], ptr, i32, i32, i32, i8, i8 }
%struct.WOLFSSL_BUFFER_INFO = type { ptr, i32 }
%struct.WOLFSSL_ALERT_HISTORY = type { %struct.WOLFSSL_ALERT, %struct.WOLFSSL_ALERT }
%struct.WOLFSSL_ALERT = type { i32, i32 }
%struct.RecordLayerHeader = type { i8, i8, i8, [2 x i8] }
%struct.MsgsReceived = type { i32 }
%struct.ProtocolVersion = type { i8, i8 }
%struct.CipherSpecs = type { i16, i16, i16, i16, i8, i8, i8, i8, i8, i8, i8, i8 }
%struct.Keys = type { [64 x i8], [64 x i8], [32 x i8], [32 x i8], [16 x i8], [16 x i8], [8 x i8], [12 x i8], [12 x i8], i32, i32, i32, i32, i32, i32, i8, i8, i8, i8 }
%struct.Options = type { i64, i64, i8, i8, i8, i8, i8, i8, i8, i8, i8, i8, i8, i8, i8, i8, i8, i8, i8, i8, i8, i8, i8, i16, i16, i16, i16, i16, i8 }
%struct.OneTimeAuth = type { ptr, i8 }
%struct.Hashes = type { [16 x i8], [20 x i8], [32 x i8], [48 x i8], [64 x i8] }
%struct.HandShakeHeader = type { i8, [3 x i8] }

; Function Attrs: inlinehint nounwind uwtable
define internal void @c32to24(i32 noundef %0, ptr noundef %1) #4 {
  %3 = alloca i32, align 4
  %4 = alloca ptr, align 8
  store i32 %0, ptr %3, align 4, !tbaa !10
  store ptr %1, ptr %4, align 8, !tbaa !8
  %5 = load i32, ptr %3, align 4, !tbaa !10
  %6 = lshr i32 %5, 16
  %7 = and i32 %6, 255
  %8 = trunc i32 %7 to i8
  %9 = load ptr, ptr %4, align 8, !tbaa !8
  %10 = getelementptr inbounds i8, ptr %9, i64 0
  store i8 %8, ptr %10, align 1, !tbaa !58
  %11 = load i32, ptr %3, align 4, !tbaa !10
  %12 = lshr i32 %11, 8
  %13 = and i32 %12, 255
  %14 = trunc i32 %13 to i8
  %15 = load ptr, ptr %4, align 8, !tbaa !8
  %16 = getelementptr inbounds i8, ptr %15, i64 1
  store i8 %14, ptr %16, align 1, !tbaa !58
  %17 = load i32, ptr %3, align 4, !tbaa !10
  %18 = and i32 %17, 255
  %19 = trunc i32 %18 to i8
  %20 = load ptr, ptr %4, align 8, !tbaa !8
  %21 = getelementptr inbounds i8, ptr %20, i64 2
  store i8 %19, ptr %21, align 1, !tbaa !58
  ret void
}

; Function Attrs: nounwind uwtable
define internal void @AddTls13HandShakeHeader(ptr noundef %0, i32 noundef %1, i32 noundef %2, i32 noundef %3, i8 noundef zeroext %4, ptr noundef %5) #0 {
  %7 = alloca ptr, align 8
  %8 = alloca i32, align 4
  %9 = alloca i32, align 4
  %10 = alloca i32, align 4
  %11 = alloca i8, align 1
  %12 = alloca ptr, align 8
  %13 = alloca ptr, align 8
  store ptr %0, ptr %7, align 8, !tbaa !8
  store i32 %1, ptr %8, align 4, !tbaa !10
  store i32 %2, ptr %9, align 4, !tbaa !10
  store i32 %3, ptr %10, align 4, !tbaa !10
  store i8 %4, ptr %11, align 1, !tbaa !58
  store ptr %5, ptr %12, align 8, !tbaa !3
  call void @llvm.lifetime.start.p0(i64 8, ptr %13) #8
  %14 = load ptr, ptr %7, align 8, !tbaa !8
  store ptr %14, ptr %13, align 8, !tbaa !109
  %15 = load i8, ptr %11, align 1, !tbaa !58
  %16 = load ptr, ptr %13, align 8, !tbaa !109
  %17 = getelementptr inbounds nuw %struct.HandShakeHeader, ptr %16, i32 0, i32 0
  store i8 %15, ptr %17, align 1, !tbaa !111
  %18 = load i32, ptr %8, align 4, !tbaa !10
  %19 = load ptr, ptr %13, align 8, !tbaa !109
  %20 = getelementptr inbounds nuw %struct.HandShakeHeader, ptr %19, i32 0, i32 1
  %21 = getelementptr inbounds [3 x i8], ptr %20, i64 0, i64 0
  call void @c32to24(i32 noundef %18, ptr noundef %21)
  call void @llvm.lifetime.end.p0(i64 8, ptr %13) #8
  ret void
}

; Function Attrs: nounwind uwtable
define internal i32 @CreateCookie(ptr noundef %0, ptr noundef %1, ptr noundef %2, ptr noundef %3, ptr noundef %4) #0 {
  %6 = alloca i32, align 4
  %7 = alloca ptr, align 8
  %8 = alloca ptr, align 8
  %9 = alloca ptr, align 8
  %10 = alloca ptr, align 8
  %11 = alloca ptr, align 8
  %12 = alloca i32, align 4
  %13 = alloca i32, align 4
  store ptr %0, ptr %7, align 8, !tbaa !3
  store ptr %1, ptr %8, align 8, !tbaa !103
  store ptr %2, ptr %9, align 8, !tbaa !8
  store ptr %3, ptr %10, align 8, !tbaa !105
  store ptr %4, ptr %11, align 8, !tbaa !107
  call void @llvm.lifetime.start.p0(i64 4, ptr %12) #8
  store i32 0, ptr %12, align 4, !tbaa !10
  %14 = load ptr, ptr %8, align 8, !tbaa !103
  store ptr null, ptr %14, align 8, !tbaa !8
  %15 = load ptr, ptr %7, align 8, !tbaa !3
  %16 = getelementptr inbounds nuw %struct.WOLFSSL, ptr %15, i32 0, i32 46
  %17 = getelementptr inbounds nuw %struct.CipherSpecs, ptr %16, i32 0, i32 6
  %18 = load i8, ptr %17, align 2, !tbaa !49
  %19 = zext i8 %18 to i32
  switch i32 %19, label %30 [
    i32 4, label %20
    i32 5, label %25
  ]

20:                                               ; preds = %5
  %21 = load ptr, ptr %10, align 8, !tbaa !105
  %22 = getelementptr inbounds nuw %struct.Hashes, ptr %21, i32 0, i32 2
  %23 = getelementptr inbounds [32 x i8], ptr %22, i64 0, i64 0
  %24 = load ptr, ptr %8, align 8, !tbaa !103
  store ptr %23, ptr %24, align 8, !tbaa !8
  br label %30

25:                                               ; preds = %5
  %26 = load ptr, ptr %10, align 8, !tbaa !105
  %27 = getelementptr inbounds nuw %struct.Hashes, ptr %26, i32 0, i32 3
  %28 = getelementptr inbounds [48 x i8], ptr %27, i64 0, i64 0
  %29 = load ptr, ptr %8, align 8, !tbaa !103
  store ptr %28, ptr %29, align 8, !tbaa !8
  br label %30

30:                                               ; preds = %5, %25, %20
  %31 = load ptr, ptr %7, align 8, !tbaa !3
  %32 = getelementptr inbounds nuw %struct.WOLFSSL, ptr %31, i32 0, i32 46
  %33 = getelementptr inbounds nuw %struct.CipherSpecs, ptr %32, i32 0, i32 9
  %34 = load i8, ptr %33, align 1, !tbaa !52
  %35 = load ptr, ptr %9, align 8, !tbaa !8
  store i8 %34, ptr %35, align 1, !tbaa !58
  %36 = load ptr, ptr %8, align 8, !tbaa !103
  %37 = load ptr, ptr %36, align 8, !tbaa !8
  %38 = icmp eq ptr %37, null
  br i1 %38, label %39, label %45

39:                                               ; preds = %30
  %40 = load ptr, ptr %9, align 8, !tbaa !8
  %41 = load i8, ptr %40, align 1, !tbaa !58
  %42 = zext i8 %41 to i32
  %43 = icmp sgt i32 %42, 0
  br i1 %43, label %44, label %45

44:                                               ; preds = %39
  store i32 -173, ptr %6, align 4
  store i32 1, ptr %13, align 4
  br label %47

45:                                               ; preds = %39, %30
  %46 = load i32, ptr %12, align 4, !tbaa !10
  store i32 %46, ptr %6, align 4
  store i32 1, ptr %13, align 4
  br label %47

47:                                               ; preds = %45, %44
  call void @llvm.lifetime.end.p0(i64 4, ptr %12) #8
  %48 = load i32, ptr %6, align 4
  ret i32 %48
}

; Function Attrs: nounwind uwtable
define i32 @RestartHandshakeHash(ptr noundef %0) #0 {
  %2 = alloca i32, align 4
  %3 = alloca ptr, align 8
  %4 = alloca i32, align 4
  %5 = alloca [4 x i8], align 1
  %6 = alloca %struct.Hashes, align 1
  %7 = alloca ptr, align 8
  %8 = alloca i8, align 1
  %9 = alloca i32, align 4
  store ptr %0, ptr %3, align 8, !tbaa !3
  call void @llvm.lifetime.start.p0(i64 4, ptr %4) #8
  call void @llvm.lifetime.start.p0(i64 4, ptr %5) #8
  call void @llvm.memset.p0.i64(ptr align 1 %5, i8 0, i64 4, i1 false)
  call void @llvm.lifetime.start.p0(i64 180, ptr %6) #8
  call void @llvm.lifetime.start.p0(i64 8, ptr %7) #8
  store ptr null, ptr %7, align 8, !tbaa !8
  call void @llvm.lifetime.start.p0(i64 1, ptr %8) #8
  store i8 0, ptr %8, align 1, !tbaa !58
  %10 = load ptr, ptr %3, align 8, !tbaa !3
  %11 = call i32 @BuildCertHashes(ptr noundef %10, ptr noundef %6)
  store i32 %11, ptr %4, align 4, !tbaa !10
  %12 = load i32, ptr %4, align 4, !tbaa !10
  %13 = icmp ne i32 %12, 0
  br i1 %13, label %14, label %16

14:                                               ; preds = %1
  %15 = load i32, ptr %4, align 4, !tbaa !10
  store i32 %15, ptr %2, align 4
  store i32 1, ptr %9, align 4
  br label %50

16:                                               ; preds = %1
  %17 = load ptr, ptr %3, align 8, !tbaa !3
  %18 = load ptr, ptr %3, align 8, !tbaa !3
  %19 = getelementptr inbounds nuw %struct.WOLFSSL, ptr %18, i32 0, i32 77
  %20 = call i32 @CreateCookie(ptr noundef %17, ptr noundef %7, ptr noundef %8, ptr noundef %6, ptr noundef %19)
  store i32 %20, ptr %4, align 4, !tbaa !10
  %21 = load i32, ptr %4, align 4, !tbaa !10
  %22 = icmp ne i32 %21, 0
  br i1 %22, label %23, label %25

23:                                               ; preds = %16
  %24 = load i32, ptr %4, align 4, !tbaa !10
  store i32 %24, ptr %2, align 4
  store i32 1, ptr %9, align 4
  br label %50

25:                                               ; preds = %16
  %26 = getelementptr inbounds [4 x i8], ptr %5, i64 0, i64 0
  %27 = load i8, ptr %8, align 1, !tbaa !58
  %28 = zext i8 %27 to i32
  %29 = load ptr, ptr %3, align 8, !tbaa !3
  call void @AddTls13HandShakeHeader(ptr noundef %26, i32 noundef %28, i32 noundef 0, i32 noundef 0, i8 noundef zeroext -2, ptr noundef %29)
  %30 = load ptr, ptr %3, align 8, !tbaa !3
  %31 = call i32 @InitHandshakeHashes(ptr noundef %30)
  store i32 %31, ptr %4, align 4, !tbaa !10
  %32 = load i32, ptr %4, align 4, !tbaa !10
  %33 = icmp ne i32 %32, 0
  br i1 %33, label %34, label %36

34:                                               ; preds = %25
  %35 = load i32, ptr %4, align 4, !tbaa !10
  store i32 %35, ptr %2, align 4
  store i32 1, ptr %9, align 4
  br label %50

36:                                               ; preds = %25
  %37 = load ptr, ptr %3, align 8, !tbaa !3
  %38 = getelementptr inbounds [4 x i8], ptr %5, i64 0, i64 0
  %39 = call i32 @HashRaw(ptr noundef %37, ptr noundef %38, i32 noundef 4)
  store i32 %39, ptr %4, align 4, !tbaa !10
  %40 = load i32, ptr %4, align 4, !tbaa !10
  %41 = icmp ne i32 %40, 0
  br i1 %41, label %42, label %44

42:                                               ; preds = %36
  %43 = load i32, ptr %4, align 4, !tbaa !10
  store i32 %43, ptr %2, align 4
  store i32 1, ptr %9, align 4
  br label %50

44:                                               ; preds = %36
  %45 = load ptr, ptr %3, align 8, !tbaa !3
  %46 = load ptr, ptr %7, align 8, !tbaa !8
  %47 = load i8, ptr %8, align 1, !tbaa !58
  %48 = zext i8 %47 to i32
  %49 = call i32 @HashRaw(ptr noundef %45, ptr noundef %46, i32 noundef %48)
  store i32 %49, ptr %2, align 4
  store i32 1, ptr %9, align 4
  br label %50

50:                                               ; preds = %44, %42, %34, %23, %14
  call void @llvm.lifetime.end.p0(i64 1, ptr %8) #8
  call void @llvm.lifetime.end.p0(i64 8, ptr %7) #8
  call void @llvm.lifetime.end.p0(i64 180, ptr %6) #8
  call void @llvm.lifetime.end.p0(i64 4, ptr %5) #8
  call void @llvm.lifetime.end.p0(i64 4, ptr %4) #8
  %51 = load i32, ptr %2, align 4
  ret i32 %51
}