; Function Attrs: nounwind uwtable
define i32 @RestartHandshakeHash(ptr noundef %0) local_unnamed_addr #0 {
  %2 = alloca [4 x i8], align 4
  %3 = alloca %struct.Hashes, align 1
  call void @llvm.lifetime.start.p0(i64 4, ptr nonnull %2) #11
  store i32 254, ptr %2, align 4
  call void @llvm.lifetime.start.p0(i64 180, ptr nonnull %3) #11
  %4 = call i32 @BuildCertHashes(ptr noundef %0, ptr noundef nonnull %3) #11
  %.not = icmp eq i32 %4, 0
  %.sink1.i.sroa.gep24 = getelementptr inbounds nuw i8, ptr %3, i64 36
  br i1 %.not, label %5, label %21

5:                                                ; preds = %1
  %.sink1.i.sroa.gep = getelementptr inbounds nuw i8, ptr %3, i64 68
  %6 = getelementptr inbounds nuw i8, ptr %0, i64 724
  %7 = load i8, ptr %6, align 2, !tbaa !46
  switch i8 %7, label %CreateCookie.exit [
    i8 4, label %.sink.split.i
    i8 5, label %CreateCookie.exit.thread
  ]

.sink.split.i:                                    ; preds = %5
  br label %CreateCookie.exit.thread

CreateCookie.exit.thread:                         ; preds = %.sink.split.i, %5
  %.025.ph = phi ptr [ %.sink1.i.sroa.gep24, %.sink.split.i ], [ %.sink1.i.sroa.gep, %5 ]
  %8 = getelementptr inbounds nuw i8, ptr %0, i64 727
  %9 = load i8, ptr %8, align 1, !tbaa !49
  br label %12

CreateCookie.exit:                                ; preds = %5
  %10 = getelementptr inbounds nuw i8, ptr %0, i64 727
  %11 = load i8, ptr %10, align 1, !tbaa !49
  %.not.i = icmp eq i8 %11, 0
  br i1 %.not.i, label %12, label %21

12:                                               ; preds = %CreateCookie.exit.thread, %CreateCookie.exit
  %13 = phi i8 [ %9, %CreateCookie.exit.thread ], [ 0, %CreateCookie.exit ]
  %.02530 = phi ptr [ %.025.ph, %CreateCookie.exit.thread ], [ null, %CreateCookie.exit ]
  %14 = zext i8 %13 to i32
  %15 = getelementptr inbounds nuw i8, ptr %2, i64 3
  store i8 %13, ptr %15, align 1, !tbaa !57
  %16 = call i32 @InitHandshakeHashes(ptr noundef nonnull %0) #11
  %.not20 = icmp eq i32 %16, 0
  br i1 %.not20, label %17, label %21

17:                                               ; preds = %12
  %18 = call i32 @HashRaw(ptr noundef nonnull %0, ptr noundef nonnull %2, i32 noundef 4) #11
  %.not21 = icmp eq i32 %18, 0
  br i1 %.not21, label %19, label %21

19:                                               ; preds = %17
  %20 = call i32 @HashRaw(ptr noundef nonnull %0, ptr noundef %.02530, i32 noundef %14) #11
  br label %21

21:                                               ; preds = %17, %12, %CreateCookie.exit, %1, %19
  %.0 = phi i32 [ %20, %19 ], [ %4, %1 ], [ -173, %CreateCookie.exit ], [ %16, %12 ], [ %18, %17 ]
  call void @llvm.lifetime.end.p0(i64 180, ptr nonnull %3) #11
  call void @llvm.lifetime.end.p0(i64 4, ptr nonnull %2) #11
  ret i32 %.0
}